; Function Attrs: mustprogress uwtable
define internal fastcc void @_ZN12_GLOBAL__N_111interpreter21update_max_generationEPN3smt5enodeES3_(ptr noundef nonnull align 8 dereferenceable(176) %this, ptr noundef %n, ptr noundef %prev) unnamed_addr #3 align 2 personality ptr @__gxx_personality_v0 {
entry:
  %m_max_generation = getelementptr inbounds i8, ptr %this, i64 80
  %m_generation.i = getelementptr inbounds i8, ptr %n, i64 36
  %0 = load i32, ptr %m_generation.i, align 4
  %1 = load i32, ptr %m_max_generation, align 8
  %.sroa.speculated = tail call i32 @llvm.umax.i32(i32 %1, i32 %0)
  store i32 %.sroa.speculated, ptr %m_max_generation, align 8
  %m = getelementptr inbounds i8, ptr %this, i64 8
  %2 = load ptr, ptr %m, align 8
  %m_trace_stream.i = getelementptr inbounds i8, ptr %2, i64 912
  %3 = load ptr, ptr %m_trace_stream.i, align 8
  %cmp.i1.not = icmp eq ptr %3, null
  br i1 %cmp.i1.not, label %if.end, label %if.then

if.then:                                          ; preds = %entry
  %m_used_enodes = getelementptr inbounds i8, ptr %this, i64 128
  %4 = load ptr, ptr %m_used_enodes, align 8
  %cmp.i2 = icmp eq ptr %4, null
  br i1 %cmp.i2, label %if.then.i, label %lor.lhs.false.i

lor.lhs.false.i:                                  ; preds = %if.then
  %arrayidx.i = getelementptr inbounds i8, ptr %4, i64 -4
  %5 = load i32, ptr %arrayidx.i, align 4
  %arrayidx4.i = getelementptr inbounds i8, ptr %4, i64 -8
  %6 = load i32, ptr %arrayidx4.i, align 4
  %cmp5.i = icmp eq i32 %5, %6
  br i1 %cmp5.i, label %if.then.i, label %_ZN6vectorISt5tupleIJPN3smt5enodeES3_EELb1EjE9push_backEOS4_.exit

if.then.i:                                        ; preds = %lor.lhs.false.i, %if.then
  tail call void @_ZN6vectorISt5tupleIJPN3smt5enodeES3_EELb1EjE13expand_vectorEv(ptr noundef nonnull align 8 dereferenceable(8) %m_used_enodes)
  %.pre.i = load ptr, ptr %m_used_enodes, align 8
  %arrayidx8.phi.trans.insert.i = getelementptr inbounds i8, ptr %.pre.i, i64 -4
  %.pre1.i = load i32, ptr %arrayidx8.phi.trans.insert.i, align 4
  br label %_ZN6vectorISt5tupleIJPN3smt5enodeES3_EELb1EjE9push_backEOS4_.exit

_ZN6vectorISt5tupleIJPN3smt5enodeES3_EELb1EjE9push_backEOS4_.exit: ; preds = %lor.lhs.false.i, %if.then.i
  %7 = phi i32 [ %.pre1.i, %if.then.i ], [ %5, %lor.lhs.false.i ]
  %8 = phi ptr [ %.pre.i, %if.then.i ], [ %4, %lor.lhs.false.i ]
  %idx.ext.i = zext i32 %7 to i64
  %add.ptr.i = getelementptr inbounds %"class.std::tuple", ptr %8, i64 %idx.ext.i
  %9 = ptrtoint ptr %n to i64
  store i64 %9, ptr %add.ptr.i, align 8
  %10 = getelementptr inbounds i8, ptr %add.ptr.i, i64 8
  %11 = ptrtoint ptr %prev to i64
  store i64 %11, ptr %10, align 8
  %12 = load ptr, ptr %m_used_enodes, align 8
  %arrayidx10.i = getelementptr inbounds i8, ptr %12, i64 -4
  %13 = load i32, ptr %arrayidx10.i, align 4
  %inc.i = add i32 %13, 1
  store i32 %inc.i, ptr %arrayidx10.i, align 4
  br label %if.end

if.end:                                           ; preds = %entry, %_ZN6vectorISt5tupleIJPN3smt5enodeES3_EELb1EjE9push_backEOS4_.exit
  ret void
}